target datalayout = "e-m:e-p270:32:32-p271:32:32-p272:64:64-i64:64-i128:128-f80:128-n8:16:32:64-S128"
target triple = "x86_64-pc-linux-gnu"

; Function Attrs: mustprogress uwtable
define noundef i32 @_ZN5RarVM8ReadDataER8BitInput(ptr noundef nonnull align 8 dereferenceable(24) %0) #2 align 2 {
  %2 = alloca i32, align 4
  %3 = alloca ptr, align 8
  %4 = alloca i32, align 4
  store ptr %0, ptr %3, align 8
  %5 = load ptr, ptr %3, align 8
  %6 = call noundef i32 @_ZN8BitInput8fgetbitsEv(ptr noundef nonnull align 8 dereferenceable(24) %5)
  store i32 %6, ptr %4, align 4
  %7 = load i32, ptr %4, align 4
  %8 = and i32 %7, 49152
  switch i32 %8, label %37 [
    i32 0, label %9
    i32 16384, label %14
    i32 32768, label %31
  ]

9:                                                ; preds = %1
  %10 = load ptr, ptr %3, align 8
  call void @_ZN8BitInput8faddbitsEj(ptr noundef nonnull align 8 dereferenceable(24) %10, i32 noundef 6)
  %11 = load i32, ptr %4, align 4
  %12 = lshr i32 %11, 10
  %13 = and i32 %12, 15
  store i32 %13, ptr %2, align 4
  br label %49

14:                                               ; preds = %1
  %15 = load i32, ptr %4, align 4
  %16 = and i32 %15, 15360
  %17 = icmp eq i32 %16, 0
  br i1 %17, label %18, label %24

18:                                               ; preds = %14
  %19 = load i32, ptr %4, align 4
  %20 = lshr i32 %19, 2
  %21 = and i32 %20, 255
  %22 = or i32 -256, %21
  store i32 %22, ptr %4, align 4
  %23 = load ptr, ptr %3, align 8
  call void @_ZN8BitInput8faddbitsEj(ptr noundef nonnull align 8 dereferenceable(24) %23, i32 noundef 14)
  br label %29

24:                                               ; preds = %14
  %25 = load i32, ptr %4, align 4
  %26 = lshr i32 %25, 6
  %27 = and i32 %26, 255
  store i32 %27, ptr %4, align 4
  %28 = load ptr, ptr %3, align 8
  call void @_ZN8BitInput8faddbitsEj(ptr noundef nonnull align 8 dereferenceable(24) %28, i32 noundef 10)
  br label %29

29:                                               ; preds = %24, %18
  %30 = load i32, ptr %4, align 4
  store i32 %30, ptr %2, align 4
  br label %49

31:                                               ; preds = %1
  %32 = load ptr, ptr %3, align 8
  call void @_ZN8BitInput8faddbitsEj(ptr noundef nonnull align 8 dereferenceable(24) %32, i32 noundef 2)
  %33 = load ptr, ptr %3, align 8
  %34 = call noundef i32 @_ZN8BitInput8fgetbitsEv(ptr noundef nonnull align 8 dereferenceable(24) %33)
  store i32 %34, ptr %4, align 4
  %35 = load ptr, ptr %3, align 8
  call void @_ZN8BitInput8faddbitsEj(ptr noundef nonnull align 8 dereferenceable(24) %35, i32 noundef 16)
  %36 = load i32, ptr %4, align 4
  store i32 %36, ptr %2, align 4
  br label %49

37:                                               ; preds = %1
  %38 = load ptr, ptr %3, align 8
  call void @_ZN8BitInput8faddbitsEj(ptr noundef nonnull align 8 dereferenceable(24) %38, i32 noundef 2)
  %39 = load ptr, ptr %3, align 8
  %40 = call noundef i32 @_ZN8BitInput8fgetbitsEv(ptr noundef nonnull align 8 dereferenceable(24) %39)
  %41 = shl i32 %40, 16
  store i32 %41, ptr %4, align 4
  %42 = load ptr, ptr %3, align 8
  call void @_ZN8BitInput8faddbitsEj(ptr noundef nonnull align 8 dereferenceable(24) %42, i32 noundef 16)
  %43 = load ptr, ptr %3, align 8
  %44 = call noundef i32 @_ZN8BitInput8fgetbitsEv(ptr noundef nonnull align 8 dereferenceable(24) %43)
  %45 = load i32, ptr %4, align 4
  %46 = or i32 %45, %44
  store i32 %46, ptr %4, align 4
  %47 = load ptr, ptr %3, align 8
  call void @_ZN8BitInput8faddbitsEj(ptr noundef nonnull align 8 dereferenceable(24) %47, i32 noundef 16)
  %48 = load i32, ptr %4, align 4
  store i32 %48, ptr %2, align 4
  br label %49

49:                                               ; preds = %37, %31, %29, %9
  %50 = load i32, ptr %2, align 4
  ret i32 %50
}