; Function Attrs: mustprogress uwtable
define noundef i32 @_ZN5RarVM8ReadDataER8BitInput(ptr noundef nonnull align 8 dereferenceable(24) %0) local_unnamed_addr #3 align 2 {
  %2 = tail call noundef i32 @_ZN8BitInput8fgetbitsEv(ptr noundef nonnull align 8 dereferenceable(24) %0)
  %3 = trunc i32 %2 to i16
  %trunc = and i16 %3, -16384
  switch i16 %trunc, label %18 [
    i16 0, label %4
    i16 16384, label %7
    i16 -32768, label %16
  ]

4:                                                ; preds = %1
  tail call void @_ZN8BitInput8faddbitsEj(ptr noundef nonnull align 8 dereferenceable(24) %0, i32 noundef 6)
  %5 = lshr i32 %2, 10
  %6 = and i32 %5, 15
  br label %23

7:                                                ; preds = %1
  %8 = and i32 %2, 15360
  %9 = icmp eq i32 %8, 0
  br i1 %9, label %10, label %13

10:                                               ; preds = %7
  %11 = lshr i32 %2, 2
  %12 = or i32 %11, -256
  tail call void @_ZN8BitInput8faddbitsEj(ptr noundef nonnull align 8 dereferenceable(24) %0, i32 noundef 14)
  br label %23

13:                                               ; preds = %7
  %14 = lshr i32 %2, 6
  %15 = and i32 %14, 255
  tail call void @_ZN8BitInput8faddbitsEj(ptr noundef nonnull align 8 dereferenceable(24) %0, i32 noundef 10)
  br label %23

16:                                               ; preds = %1
  tail call void @_ZN8BitInput8faddbitsEj(ptr noundef nonnull align 8 dereferenceable(24) %0, i32 noundef 2)
  %17 = tail call noundef i32 @_ZN8BitInput8fgetbitsEv(ptr noundef nonnull align 8 dereferenceable(24) %0)
  tail call void @_ZN8BitInput8faddbitsEj(ptr noundef nonnull align 8 dereferenceable(24) %0, i32 noundef 16)
  br label %23

18:                                               ; preds = %1
  tail call void @_ZN8BitInput8faddbitsEj(ptr noundef nonnull align 8 dereferenceable(24) %0, i32 noundef 2)
  %19 = tail call noundef i32 @_ZN8BitInput8fgetbitsEv(ptr noundef nonnull align 8 dereferenceable(24) %0)
  %20 = shl i32 %19, 16
  tail call void @_ZN8BitInput8faddbitsEj(ptr noundef nonnull align 8 dereferenceable(24) %0, i32 noundef 16)
  %21 = tail call noundef i32 @_ZN8BitInput8fgetbitsEv(ptr noundef nonnull align 8 dereferenceable(24) %0)
  %22 = or i32 %21, %20
  tail call void @_ZN8BitInput8faddbitsEj(ptr noundef nonnull align 8 dereferenceable(24) %0, i32 noundef 16)
  br label %23

23:                                               ; preds = %10, %13, %18, %16, %4
  %.021 = phi i32 [ %22, %18 ], [ %17, %16 ], [ %6, %4 ], [ %12, %10 ], [ %15, %13 ]
  ret i32 %.021
}